target datalayout = "e-m:e-p270:32:32-p271:32:32-p272:64:64-i64:64-i128:128-f80:128-n8:16:32:64-S128"
target triple = "x86_64-unknown-linux-gnu"

%struct.DMAAIOCB = type { %struct.BlockAIOCB, ptr, ptr, ptr, i32, i64, i32, i32, i64, %struct.QEMUIOVector, ptr, ptr, ptr }
%struct.BlockAIOCB = type { ptr, ptr, ptr, ptr, i32 }
%struct.QEMUIOVector = type { ptr, i32, %union.anon }
%union.anon = type { %struct.anon }
%struct.anon = type { i32, %struct.iovec }
%struct.iovec = type { ptr, i64 }

@.str.1 = private unnamed_addr constant [29 x i8] c"../qemu/system/dma-helpers.c\00", align 1
@.str.15 = private unnamed_addr constant [21 x i8] c"!dbs->acb && dbs->bh\00", align 1
@__PRETTY_FUNCTION__.reschedule_dma = private unnamed_addr constant [28 x i8] c"void reschedule_dma(void *)\00", align 1

; Function Attrs: nounwind sspstrong uwtable
define internal void @reschedule_dma(ptr noundef %opaque) #0 {
entry:
  %opaque.addr = alloca ptr, align 8
  %dbs = alloca ptr, align 8
  store ptr %opaque, ptr %opaque.addr, align 8
  %0 = load ptr, ptr %opaque.addr, align 8
  store ptr %0, ptr %dbs, align 8
  %1 = load ptr, ptr %dbs, align 8
  %acb = getelementptr inbounds %struct.DMAAIOCB, ptr %1, i32 0, i32 2
  %2 = load ptr, ptr %acb, align 8
  %tobool = icmp ne ptr %2, null
  br i1 %tobool, label %if.else, label %land.lhs.true

land.lhs.true:                                    ; preds = %entry
  %3 = load ptr, ptr %dbs, align 8
  %bh = getelementptr inbounds %struct.DMAAIOCB, ptr %3, i32 0, i32 10
  %4 = load ptr, ptr %bh, align 8
  %tobool1 = icmp ne ptr %4, null
  br i1 %tobool1, label %if.then, label %if.else

if.then:                                          ; preds = %land.lhs.true
  br label %if.end

if.else:                                          ; preds = %land.lhs.true, %entry
  call void @__assert_fail(ptr noundef @.str.15, ptr noundef @.str.1, i32 noundef 82, ptr noundef @__PRETTY_FUNCTION__.reschedule_dma) #10
  unreachable

if.end:                                           ; preds = %if.then
  %5 = load ptr, ptr %dbs, align 8
  %bh2 = getelementptr inbounds %struct.DMAAIOCB, ptr %5, i32 0, i32 10
  %6 = load ptr, ptr %bh2, align 8
  call void @qemu_bh_delete(ptr noundef %6)
  %7 = load ptr, ptr %dbs, align 8
  %bh3 = getelementptr inbounds %struct.DMAAIOCB, ptr %7, i32 0, i32 10
  store ptr null, ptr %bh3, align 8
  %8 = load ptr, ptr %dbs, align 8
  call void @dma_blk_cb(ptr noundef %8, i32 noundef 0)
  ret void
}