; Function Attrs: nounwind sspstrong uwtable
define internal void @reschedule_dma(ptr noundef %opaque) #0 {
entry:
  %acb = getelementptr inbounds nuw i8, ptr %opaque, i64 48
  %0 = load ptr, ptr %acb, align 8
  %tobool.not = icmp eq ptr %0, null
  br i1 %tobool.not, label %land.lhs.true, label %if.else

land.lhs.true:                                    ; preds = %entry
  %bh = getelementptr inbounds nuw i8, ptr %opaque, i64 136
  %1 = load ptr, ptr %bh, align 8
  %tobool1.not = icmp eq ptr %1, null
  br i1 %tobool1.not, label %if.else, label %if.end

if.else:                                          ; preds = %land.lhs.true, %entry
  tail call void @__assert_fail(ptr noundef nonnull @.str.15, ptr noundef nonnull @.str.1, i32 noundef 82, ptr noundef nonnull @__PRETTY_FUNCTION__.reschedule_dma) #12
  unreachable

if.end:                                           ; preds = %land.lhs.true
  tail call void @qemu_bh_delete(ptr noundef nonnull %1) #10
  store ptr null, ptr %bh, align 8
  tail call void @dma_blk_cb(ptr noundef nonnull %opaque, i32 noundef 0)
  ret void
}